target datalayout = "e-m:e-p270:32:32-p271:32:32-p272:64:64-i64:64-i128:128-f80:128-n8:16:32:64-S128"
target triple = "x86_64-pc-linux-gnu"

%struct.Int128_ = type { i64, i64 }

; Function Attrs: nounwind uwtable
define dso_local zeroext i1 @i128_get_bit(ptr noundef %0, i32 noundef %1) #0 {
  %3 = alloca i1, align 1
  %4 = alloca ptr, align 8
  %5 = alloca i32, align 4
  store ptr %0, ptr %4, align 8
  store i32 %1, ptr %5, align 4
  %6 = load i32, ptr %5, align 4
  %7 = icmp sgt i32 %6, 63
  br i1 %7, label %8, label %18

8:                                                ; preds = %2
  %9 = load ptr, ptr %4, align 8
  %10 = getelementptr inbounds %struct.Int128_, ptr %9, i32 0, i32 0
  %11 = load i64, ptr %10, align 8
  %12 = load i32, ptr %5, align 4
  %13 = sub nsw i32 %12, 64
  %14 = zext i32 %13 to i64
  %15 = lshr i64 %11, %14
  %16 = and i64 %15, 1
  %17 = icmp ne i64 %16, 0
  store i1 %17, ptr %3, align 1
  br label %28

18:                                               ; preds = %2
  %19 = load ptr, ptr %4, align 8
  %20 = getelementptr inbounds %struct.Int128_, ptr %19, i32 0, i32 1
  %21 = load i64, ptr %20, align 8
  %22 = load i32, ptr %5, align 4
  %23 = sub nsw i32 64, %22
  %24 = zext i32 %23 to i64
  %25 = lshr i64 %21, %24
  %26 = and i64 %25, 1
  %27 = icmp ne i64 %26, 0
  store i1 %27, ptr %3, align 1
  br label %28

28:                                               ; preds = %18, %8
  %29 = load i1, ptr %3, align 1
  ret i1 %29
}